; Function Attrs: nofree norecurse nosync nounwind memory(argmem: readwrite) uwtable
define internal void @put_vp8_bilinear8_h_c(ptr noundef writeonly captures(none) %0, i64 noundef %1, ptr noundef readonly captures(none) %2, i64 noundef %3, i32 noundef %4, i32 noundef %5, i32 %6) #1 {
  %8 = sub nsw i32 8, %5
  %9 = icmp sgt i32 %4, 0
  br i1 %9, label %.preheader, label %._crit_edge

.preheader:                                       ; preds = %7, %24
  %.024 = phi i32 [ %27, %24 ], [ 0, %7 ]
  %.01923 = phi ptr [ %25, %24 ], [ %0, %7 ]
  %.02022 = phi ptr [ %26, %24 ], [ %2, %7 ]
  br label %10

10:                                               ; preds = %.preheader, %10
  %indvars.iv = phi i64 [ 0, %.preheader ], [ %indvars.iv.next, %10 ]
  %11 = getelementptr inbounds nuw i8, ptr %.02022, i64 %indvars.iv
  %12 = load i8, ptr %11, align 1, !tbaa !10
  %13 = zext i8 %12 to i32
  %14 = mul nsw i32 %8, %13
  %indvars.iv.next = add nuw nsw i64 %indvars.iv, 1
  %15 = getelementptr inbounds nuw i8, ptr %.02022, i64 %indvars.iv.next
  %16 = load i8, ptr %15, align 1, !tbaa !10
  %17 = zext i8 %16 to i32
  %18 = mul nsw i32 %5, %17
  %19 = add i32 %14, 4
  %20 = add i32 %19, %18
  %21 = lshr i32 %20, 3
  %22 = trunc i32 %21 to i8
  %23 = getelementptr inbounds nuw i8, ptr %.01923, i64 %indvars.iv
  store i8 %22, ptr %23, align 1, !tbaa !10
  %exitcond.not = icmp eq i64 %indvars.iv.next, 8
  br i1 %exitcond.not, label %24, label %10, !llvm.loop !93

24:                                               ; preds = %10
  %25 = getelementptr inbounds i8, ptr %.01923, i64 %1
  %26 = getelementptr inbounds i8, ptr %.02022, i64 %3
  %27 = add nuw nsw i32 %.024, 1
  %exitcond26.not = icmp eq i32 %27, %4
  br i1 %exitcond26.not, label %._crit_edge, label %.preheader, !llvm.loop !94

._crit_edge:                                      ; preds = %24, %7
  ret void
}